target datalayout = "e-m:e-p270:32:32-p271:32:32-p272:64:64-i64:64-i128:128-f80:128-n8:16:32:64-S128"
target triple = "x86_64-pc-linux-gnu"

%"class.cv::Size_" = type { i32, i32 }
%"class.cv::AutoBuffer.23" = type { ptr, i64, [264 x i32] }

; Function Attrs: inlinehint mustprogress nounwind uwtable
define linkonce_odr hidden void @_ZN2cv10AutoBufferIiLm264EE10deallocateEv(ptr noundef nonnull align 8 dereferenceable(1072) %0) #6 comdat align 2 {
  %2 = alloca ptr, align 8
  store ptr %0, ptr %2, align 8, !tbaa !232
  %3 = load ptr, ptr %2, align 8
  %4 = getelementptr inbounds nuw %"class.cv::AutoBuffer.23", ptr %3, i32 0, i32 0
  %5 = load ptr, ptr %4, align 8, !tbaa !234
  %6 = getelementptr inbounds nuw %"class.cv::AutoBuffer.23", ptr %3, i32 0, i32 2
  %7 = getelementptr inbounds [264 x i32], ptr %6, i64 0, i64 0
  %8 = icmp ne ptr %5, %7
  br i1 %8, label %9, label %19

9:                                                ; preds = %1
  %10 = getelementptr inbounds nuw %"class.cv::AutoBuffer.23", ptr %3, i32 0, i32 0
  %11 = load ptr, ptr %10, align 8, !tbaa !234
  %12 = icmp eq ptr %11, null
  br i1 %12, label %14, label %13

13:                                               ; preds = %9
  call void @_ZdaPv(ptr noundef %11) #19
  br label %14

14:                                               ; preds = %13, %9
  %15 = getelementptr inbounds nuw %"class.cv::AutoBuffer.23", ptr %3, i32 0, i32 2
  %16 = getelementptr inbounds [264 x i32], ptr %15, i64 0, i64 0
  %17 = getelementptr inbounds nuw %"class.cv::AutoBuffer.23", ptr %3, i32 0, i32 0
  store ptr %16, ptr %17, align 8, !tbaa !234
  %18 = getelementptr inbounds nuw %"class.cv::AutoBuffer.23", ptr %3, i32 0, i32 1
  store i64 264, ptr %18, align 8, !tbaa !236
  br label %19

19:                                               ; preds = %14, %1
  ret void
}

; Function Attrs: inlinehint mustprogress uwtable
define linkonce_odr hidden void @_ZN2cv10AutoBufferIiLm264EE8allocateEm(ptr noundef nonnull align 8 dereferenceable(1072) %0, i64 noundef %1) #5 comdat align 2 {
  %3 = alloca ptr, align 8
  %4 = alloca i64, align 8
  store ptr %0, ptr %3, align 8, !tbaa !232
  store i64 %1, ptr %4, align 8, !tbaa !42
  %5 = load ptr, ptr %3, align 8
  %6 = load i64, ptr %4, align 8, !tbaa !42
  %7 = getelementptr inbounds nuw %"class.cv::AutoBuffer.23", ptr %5, i32 0, i32 1
  %8 = load i64, ptr %7, align 8, !tbaa !236
  %9 = icmp ule i64 %6, %8
  br i1 %9, label %10, label %13

10:                                               ; preds = %2
  %11 = load i64, ptr %4, align 8, !tbaa !42
  %12 = getelementptr inbounds nuw %"class.cv::AutoBuffer.23", ptr %5, i32 0, i32 1
  store i64 %11, ptr %12, align 8, !tbaa !236
  br label %26

13:                                               ; preds = %2
  call void @_ZN2cv10AutoBufferIiLm264EE10deallocateEv(ptr noundef nonnull align 8 dereferenceable(1072) %5)
  %14 = load i64, ptr %4, align 8, !tbaa !42
  %15 = getelementptr inbounds nuw %"class.cv::AutoBuffer.23", ptr %5, i32 0, i32 1
  store i64 %14, ptr %15, align 8, !tbaa !236
  %16 = load i64, ptr %4, align 8, !tbaa !42
  %17 = icmp ugt i64 %16, 264
  br i1 %17, label %18, label %26

18:                                               ; preds = %13
  %19 = load i64, ptr %4, align 8, !tbaa !42
  %20 = call { i64, i1 } @llvm.umul.with.overflow.i64(i64 %19, i64 4)
  %21 = extractvalue { i64, i1 } %20, 1
  %22 = extractvalue { i64, i1 } %20, 0
  %23 = select i1 %21, i64 -1, i64 %22
  %24 = call noalias noundef nonnull ptr @_Znam(i64 noundef %23) #18
  %25 = getelementptr inbounds nuw %"class.cv::AutoBuffer.23", ptr %5, i32 0, i32 0
  store ptr %24, ptr %25, align 8, !tbaa !234
  br label %26

26:                                               ; preds = %10, %18, %13
  ret void
}

; Function Attrs: inlinehint mustprogress nounwind uwtable
define linkonce_odr hidden void @_ZN2cv10AutoBufferIiLm264EED2Ev(ptr noundef nonnull align 8 dereferenceable(1072) %0) unnamed_addr #6 comdat align 2 {
  %2 = alloca ptr, align 8
  store ptr %0, ptr %2, align 8, !tbaa !232
  %3 = load ptr, ptr %2, align 8
  call void @_ZN2cv10AutoBufferIiLm264EE10deallocateEv(ptr noundef nonnull align 8 dereferenceable(1072) %3)
  ret void
}

; Function Attrs: inlinehint mustprogress nounwind uwtable
define linkonce_odr hidden noundef ptr @_ZN2cv10AutoBufferIiLm264EE4dataEv(ptr noundef nonnull align 8 dereferenceable(1072) %0) #6 comdat align 2 {
  %2 = alloca ptr, align 8
  store ptr %0, ptr %2, align 8, !tbaa !232
  %3 = load ptr, ptr %2, align 8
  %4 = getelementptr inbounds nuw %"class.cv::AutoBuffer.23", ptr %3, i32 0, i32 0
  %5 = load ptr, ptr %4, align 8, !tbaa !234
  ret ptr %5
}

; Function Attrs: inlinehint mustprogress uwtable
define linkonce_odr hidden void @_ZN2cv10AutoBufferIiLm264EEC2Em(ptr noundef nonnull align 8 dereferenceable(1072) %0, i64 noundef %1) unnamed_addr #5 comdat align 2 {
  %3 = alloca ptr, align 8
  %4 = alloca i64, align 8
  store ptr %0, ptr %3, align 8, !tbaa !232
  store i64 %1, ptr %4, align 8, !tbaa !42
  %5 = load ptr, ptr %3, align 8
  %6 = getelementptr inbounds nuw %"class.cv::AutoBuffer.23", ptr %5, i32 0, i32 2
  %7 = getelementptr inbounds [264 x i32], ptr %6, i64 0, i64 0
  %8 = getelementptr inbounds nuw %"class.cv::AutoBuffer.23", ptr %5, i32 0, i32 0
  store ptr %7, ptr %8, align 8, !tbaa !234
  %9 = getelementptr inbounds nuw %"class.cv::AutoBuffer.23", ptr %5, i32 0, i32 1
  store i64 264, ptr %9, align 8, !tbaa !236
  %10 = load i64, ptr %4, align 8, !tbaa !42
  call void @_ZN2cv10AutoBufferIiLm264EE8allocateEm(ptr noundef nonnull align 8 dereferenceable(1072) %5, i64 noundef %10)
  ret void
}

; Function Attrs: mustprogress uwtable
define internal void @_ZN2cvL9flipHorizEPKhmPhmNS_5Size_IiEEm(ptr noundef %0, i64 noundef %1, ptr noundef %2, i64 noundef %3, i64 %4, i64 noundef %5) #0 personality ptr @__gxx_personality_v0 {
  %7 = alloca %"class.cv::Size_", align 4
  %8 = alloca ptr, align 8
  %9 = alloca i64, align 8
  %10 = alloca ptr, align 8
  %11 = alloca i64, align 8
  %12 = alloca i64, align 8
  %13 = alloca i32, align 4
  %14 = alloca i32, align 4
  %15 = alloca i32, align 4
  %16 = alloca %"class.cv::AutoBuffer.23", align 8
  %17 = alloca ptr, align 8
  %18 = alloca ptr, align 8
  %19 = alloca i32, align 4
  %20 = alloca i64, align 8
  %21 = alloca i8, align 1
  %22 = alloca i8, align 1
  store i64 %4, ptr %7, align 4
  store ptr %0, ptr %8, align 8, !tbaa !28
  store i64 %1, ptr %9, align 8, !tbaa !42
  store ptr %2, ptr %10, align 8, !tbaa !28
  store i64 %3, ptr %11, align 8, !tbaa !42
  store i64 %5, ptr %12, align 8, !tbaa !42
  call void @llvm.lifetime.start.p0(i64 4, ptr %13) #15
  call void @llvm.lifetime.start.p0(i64 4, ptr %14) #15
  call void @llvm.lifetime.start.p0(i64 4, ptr %15) #15
  %23 = getelementptr inbounds nuw %"class.cv::Size_", ptr %7, i32 0, i32 0
  %24 = load i32, ptr %23, align 4, !tbaa !37
  %25 = add nsw i32 %24, 1
  %26 = sdiv i32 %25, 2
  %27 = sext i32 %26 to i64
  %28 = load i64, ptr %12, align 8, !tbaa !42
  %29 = mul i64 %27, %28
  %30 = trunc i64 %29 to i32
  store i32 %30, ptr %15, align 4, !tbaa !10
  call void @llvm.lifetime.start.p0(i64 1072, ptr %16) #15
  %31 = getelementptr inbounds nuw %"class.cv::Size_", ptr %7, i32 0, i32 0
  %32 = load i32, ptr %31, align 4, !tbaa !37
  %33 = sext i32 %32 to i64
  %34 = load i64, ptr %12, align 8, !tbaa !42
  %35 = mul i64 %33, %34
  call void @_ZN2cv10AutoBufferIiLm264EEC2Em(ptr noundef nonnull align 8 dereferenceable(1072) %16, i64 noundef %35)
  call void @llvm.lifetime.start.p0(i64 8, ptr %17) #15
  %36 = invoke noundef ptr @_ZN2cv10AutoBufferIiLm264EE4dataEv(ptr noundef nonnull align 8 dereferenceable(1072) %16)
          to label %37 unwind label %49

37:                                               ; preds = %6
  store ptr %36, ptr %17, align 8, !tbaa !66
  store i32 0, ptr %13, align 4, !tbaa !10
  br label %38

38:                                               ; preds = %77, %37
  %39 = load i32, ptr %13, align 4, !tbaa !10
  %40 = getelementptr inbounds nuw %"class.cv::Size_", ptr %7, i32 0, i32 0
  %41 = load i32, ptr %40, align 4, !tbaa !37
  %42 = icmp slt i32 %39, %41
  br i1 %42, label %43, label %80

43:                                               ; preds = %38
  call void @llvm.lifetime.start.p0(i64 8, ptr %20) #15
  store i64 0, ptr %20, align 8, !tbaa !42
  br label %44

44:                                               ; preds = %73, %43
  %45 = load i64, ptr %20, align 8, !tbaa !42
  %46 = load i64, ptr %12, align 8, !tbaa !42
  %47 = icmp ult i64 %45, %46
  br i1 %47, label %53, label %48

48:                                               ; preds = %44
  call void @llvm.lifetime.end.p0(i64 8, ptr %20) #15
  br label %76

49:                                               ; preds = %6
  %50 = landingpad { ptr, i32 }
          cleanup
  %51 = extractvalue { ptr, i32 } %50, 0
  store ptr %51, ptr %18, align 8
  %52 = extractvalue { ptr, i32 } %50, 1
  store i32 %52, ptr %19, align 4
  call void @llvm.lifetime.end.p0(i64 8, ptr %17) #15
  call void @_ZN2cv10AutoBufferIiLm264EED2Ev(ptr noundef nonnull align 8 dereferenceable(1072) %16) #15
  call void @llvm.lifetime.end.p0(i64 1072, ptr %16) #15
  call void @llvm.lifetime.end.p0(i64 4, ptr %15) #15
  call void @llvm.lifetime.end.p0(i64 4, ptr %14) #15
  call void @llvm.lifetime.end.p0(i64 4, ptr %13) #15
  br label %129

53:                                               ; preds = %44
  %54 = getelementptr inbounds nuw %"class.cv::Size_", ptr %7, i32 0, i32 0
  %55 = load i32, ptr %54, align 4, !tbaa !37
  %56 = load i32, ptr %13, align 4, !tbaa !10
  %57 = sub nsw i32 %55, %56
  %58 = sub nsw i32 %57, 1
  %59 = sext i32 %58 to i64
  %60 = load i64, ptr %12, align 8, !tbaa !42
  %61 = mul i64 %59, %60
  %62 = load i64, ptr %20, align 8, !tbaa !42
  %63 = add i64 %61, %62
  %64 = trunc i64 %63 to i32
  %65 = load ptr, ptr %17, align 8, !tbaa !66
  %66 = load i32, ptr %13, align 4, !tbaa !10
  %67 = sext i32 %66 to i64
  %68 = load i64, ptr %12, align 8, !tbaa !42
  %69 = mul i64 %67, %68
  %70 = load i64, ptr %20, align 8, !tbaa !42
  %71 = add i64 %69, %70
  %72 = getelementptr inbounds nuw i32, ptr %65, i64 %71
  store i32 %64, ptr %72, align 4, !tbaa !10
  br label %73

73:                                               ; preds = %53
  %74 = load i64, ptr %20, align 8, !tbaa !42
  %75 = add i64 %74, 1
  store i64 %75, ptr %20, align 8, !tbaa !42
  br label %44, !llvm.loop !82

76:                                               ; preds = %48
  br label %77

77:                                               ; preds = %76
  %78 = load i32, ptr %13, align 4, !tbaa !10
  %79 = add nsw i32 %78, 1
  store i32 %79, ptr %13, align 4, !tbaa !10
  br label %38, !llvm.loop !83

80:                                               ; preds = %38
  br label %81

81:                                               ; preds = %121, %80
  %82 = getelementptr inbounds nuw %"class.cv::Size_", ptr %7, i32 0, i32 1
  %83 = load i32, ptr %82, align 4, !tbaa !38
  %84 = add nsw i32 %83, -1
  store i32 %84, ptr %82, align 4, !tbaa !38
  %85 = icmp ne i32 %83, 0
  br i1 %85, label %86, label %128

86:                                               ; preds = %81
  store i32 0, ptr %13, align 4, !tbaa !10
  br label %87

87:                                               ; preds = %117, %86
  %88 = load i32, ptr %13, align 4, !tbaa !10
  %89 = load i32, ptr %15, align 4, !tbaa !10
  %90 = icmp slt i32 %88, %89
  br i1 %90, label %91, label %120

91:                                               ; preds = %87
  %92 = load ptr, ptr %17, align 8, !tbaa !66
  %93 = load i32, ptr %13, align 4, !tbaa !10
  %94 = sext i32 %93 to i64
  %95 = getelementptr inbounds i32, ptr %92, i64 %94
  %96 = load i32, ptr %95, align 4, !tbaa !10
  store i32 %96, ptr %14, align 4, !tbaa !10
  call void @llvm.lifetime.start.p0(i64 1, ptr %21) #15
  %97 = load ptr, ptr %8, align 8, !tbaa !28
  %98 = load i32, ptr %13, align 4, !tbaa !10
  %99 = sext i32 %98 to i64
  %100 = getelementptr inbounds i8, ptr %97, i64 %99
  %101 = load i8, ptr %100, align 1, !tbaa !79
  store i8 %101, ptr %21, align 1, !tbaa !79
  call void @llvm.lifetime.start.p0(i64 1, ptr %22) #15
  %102 = load ptr, ptr %8, align 8, !tbaa !28
  %103 = load i32, ptr %14, align 4, !tbaa !10
  %104 = sext i32 %103 to i64
  %105 = getelementptr inbounds i8, ptr %102, i64 %104
  %106 = load i8, ptr %105, align 1, !tbaa !79
  store i8 %106, ptr %22, align 1, !tbaa !79
  %107 = load i8, ptr %22, align 1, !tbaa !79
  %108 = load ptr, ptr %10, align 8, !tbaa !28
  %109 = load i32, ptr %13, align 4, !tbaa !10
  %110 = sext i32 %109 to i64
  %111 = getelementptr inbounds i8, ptr %108, i64 %110
  store i8 %107, ptr %111, align 1, !tbaa !79
  %112 = load i8, ptr %21, align 1, !tbaa !79
  %113 = load ptr, ptr %10, align 8, !tbaa !28
  %114 = load i32, ptr %14, align 4, !tbaa !10
  %115 = sext i32 %114 to i64
  %116 = getelementptr inbounds i8, ptr %113, i64 %115
  store i8 %112, ptr %116, align 1, !tbaa !79
  call void @llvm.lifetime.end.p0(i64 1, ptr %22) #15
  call void @llvm.lifetime.end.p0(i64 1, ptr %21) #15
  br label %117

117:                                              ; preds = %91
  %118 = load i32, ptr %13, align 4, !tbaa !10
  %119 = add nsw i32 %118, 1
  store i32 %119, ptr %13, align 4, !tbaa !10
  br label %87, !llvm.loop !84

120:                                              ; preds = %87
  br label %121

121:                                              ; preds = %120
  %122 = load i64, ptr %9, align 8, !tbaa !42
  %123 = load ptr, ptr %8, align 8, !tbaa !28
  %124 = getelementptr inbounds nuw i8, ptr %123, i64 %122
  store ptr %124, ptr %8, align 8, !tbaa !28
  %125 = load i64, ptr %11, align 8, !tbaa !42
  %126 = load ptr, ptr %10, align 8, !tbaa !28
  %127 = getelementptr inbounds nuw i8, ptr %126, i64 %125
  store ptr %127, ptr %10, align 8, !tbaa !28
  br label %81, !llvm.loop !85

128:                                              ; preds = %81
  call void @llvm.lifetime.end.p0(i64 8, ptr %17) #15
  call void @_ZN2cv10AutoBufferIiLm264EED2Ev(ptr noundef nonnull align 8 dereferenceable(1072) %16) #15
  call void @llvm.lifetime.end.p0(i64 1072, ptr %16) #15
  call void @llvm.lifetime.end.p0(i64 4, ptr %15) #15
  call void @llvm.lifetime.end.p0(i64 4, ptr %14) #15
  call void @llvm.lifetime.end.p0(i64 4, ptr %13) #15
  ret void

129:                                              ; preds = %49
  %130 = load ptr, ptr %18, align 8
  %131 = load i32, ptr %19, align 4
  %132 = insertvalue { ptr, i32 } poison, ptr %130, 0
  %133 = insertvalue { ptr, i32 } %132, i32 %131, 1
  resume { ptr, i32 } %133
}