; Function Attrs: mustprogress uwtable
define internal fastcc void @_ZN2cvL9flipHorizEPKhmPhmNS_5Size_IiEEm(ptr noundef readonly captures(none) %0, i64 noundef %1, ptr noundef writeonly captures(none) %2, i64 noundef %3, i64 %4, i64 noundef range(i64 0, 7681) %5) unnamed_addr #0 personality ptr @__gxx_personality_v0 {
  %7 = alloca %"class.cv::AutoBuffer.23", align 8
  %.sroa.0.0.extract.trunc = trunc i64 %4 to i32
  %.sroa.5.0.extract.shift = lshr i64 %4, 32
  %.sroa.5.0.extract.trunc = trunc nuw i64 %.sroa.5.0.extract.shift to i32
  %8 = add nsw i32 %.sroa.0.0.extract.trunc, 1
  %9 = sdiv i32 %8, 2
  %10 = trunc nuw nsw i64 %5 to i32
  %11 = mul i32 %9, %10
  call void @llvm.lifetime.start.p0(i64 1072, ptr nonnull %7) #16
  %sext = shl i64 %4, 32
  %12 = ashr exact i64 %sext, 32
  %13 = mul nsw i64 %12, %5
  %14 = getelementptr inbounds nuw i8, ptr %7, i64 16
  store ptr %14, ptr %7, align 8, !tbaa !74
  %15 = getelementptr inbounds nuw i8, ptr %7, i64 8
  %.not.i.i = icmp ugt i64 %13, 264
  store i64 %13, ptr %15, align 8, !tbaa !76
  br i1 %.not.i.i, label %16, label %_ZN2cv10AutoBufferIiLm264EEC2Em.exit

16:                                               ; preds = %6
  %17 = icmp ugt i64 %13, 4611686018427387903
  %18 = shl nuw nsw i64 %13, 2
  %19 = select i1 %17, i64 -1, i64 %18
  %20 = call noalias noundef nonnull ptr @_Znam(i64 noundef %19) #20
  store ptr %20, ptr %7, align 8, !tbaa !74
  br label %_ZN2cv10AutoBufferIiLm264EEC2Em.exit

_ZN2cv10AutoBufferIiLm264EEC2Em.exit:             ; preds = %6, %16
  %21 = phi ptr [ %14, %6 ], [ %20, %16 ]
  %22 = icmp slt i32 %.sroa.0.0.extract.trunc, 1
  %.not50 = icmp eq i64 %5, 0
  %or.cond = or i1 %22, %.not50
  br i1 %or.cond, label %.preheader40, label %.preheader41.us.preheader

.preheader41.us.preheader:                        ; preds = %_ZN2cv10AutoBufferIiLm264EEC2Em.exit
  %wide.trip.count = and i64 %4, 2147483647
  br label %.preheader41.us

.preheader41.us:                                  ; preds = %.preheader41.us.preheader, %._crit_edge.us
  %indvars.iv = phi i64 [ 0, %.preheader41.us.preheader ], [ %indvars.iv.next, %._crit_edge.us ]
  %23 = xor i64 %indvars.iv, -1
  %24 = add i64 %4, %23
  %25 = mul i64 %5, %24
  %26 = mul nuw nsw i64 %5, %indvars.iv
  %27 = getelementptr inbounds nuw i32, ptr %21, i64 %26
  br label %28

28:                                               ; preds = %.preheader41.us, %28
  %.03542.us = phi i64 [ 0, %.preheader41.us ], [ %32, %28 ]
  %29 = add i64 %.03542.us, %25
  %30 = trunc i64 %29 to i32
  %31 = getelementptr inbounds nuw i32, ptr %27, i64 %.03542.us
  store i32 %30, ptr %31, align 4, !tbaa !33
  %32 = add nuw nsw i64 %.03542.us, 1
  %exitcond.not = icmp eq i64 %32, %5
  br i1 %exitcond.not, label %._crit_edge.us, label %28, !llvm.loop !77

._crit_edge.us:                                   ; preds = %28
  %indvars.iv.next = add nuw nsw i64 %indvars.iv, 1
  %exitcond54.not = icmp eq i64 %indvars.iv.next, %wide.trip.count
  br i1 %exitcond54.not, label %.preheader40, label %.preheader41.us, !llvm.loop !78

.preheader40:                                     ; preds = %._crit_edge.us, %_ZN2cv10AutoBufferIiLm264EEC2Em.exit
  %.not45 = icmp ugt i64 %4, 4294967295
  %33 = icmp sgt i32 %11, 0
  %or.cond60 = select i1 %.not45, i1 %33, i1 false
  br i1 %or.cond60, label %.preheader.us.preheader, label %._crit_edge48

.preheader.us.preheader:                          ; preds = %.preheader40
  %wide.trip.count58 = zext nneg i32 %11 to i64
  br label %.preheader.us

.preheader.us:                                    ; preds = %.preheader.us.preheader, %._crit_edge.us49
  %.in = phi i32 [ %34, %._crit_edge.us49 ], [ %.sroa.5.0.extract.trunc, %.preheader.us.preheader ]
  %.047.us = phi ptr [ %45, %._crit_edge.us49 ], [ %0, %.preheader.us.preheader ]
  %.03646.us = phi ptr [ %46, %._crit_edge.us49 ], [ %2, %.preheader.us.preheader ]
  %34 = add nsw i32 %.in, -1
  br label %35

35:                                               ; preds = %.preheader.us, %35
  %indvars.iv55 = phi i64 [ 0, %.preheader.us ], [ %indvars.iv.next56, %35 ]
  %36 = getelementptr inbounds nuw i32, ptr %21, i64 %indvars.iv55
  %37 = load i32, ptr %36, align 4, !tbaa !33
  %38 = getelementptr inbounds nuw i8, ptr %.047.us, i64 %indvars.iv55
  %39 = load i8, ptr %38, align 1, !tbaa !69
  %40 = sext i32 %37 to i64
  %41 = getelementptr inbounds i8, ptr %.047.us, i64 %40
  %42 = load i8, ptr %41, align 1, !tbaa !69
  %43 = getelementptr inbounds nuw i8, ptr %.03646.us, i64 %indvars.iv55
  store i8 %42, ptr %43, align 1, !tbaa !69
  %44 = getelementptr inbounds i8, ptr %.03646.us, i64 %40
  store i8 %39, ptr %44, align 1, !tbaa !69
  %indvars.iv.next56 = add nuw nsw i64 %indvars.iv55, 1
  %exitcond59.not = icmp eq i64 %indvars.iv.next56, %wide.trip.count58
  br i1 %exitcond59.not, label %._crit_edge.us49, label %35, !llvm.loop !79

._crit_edge.us49:                                 ; preds = %35
  %45 = getelementptr inbounds nuw i8, ptr %.047.us, i64 %1
  %46 = getelementptr inbounds nuw i8, ptr %.03646.us, i64 %3
  %.not.us = icmp eq i32 %34, 0
  br i1 %.not.us, label %._crit_edge48, label %.preheader.us, !llvm.loop !80

._crit_edge48:                                    ; preds = %._crit_edge.us49, %.preheader40
  %.not.i.i39 = icmp eq ptr %21, %14
  br i1 %.not.i.i39, label %_ZN2cv10AutoBufferIiLm264EED2Ev.exit, label %47

47:                                               ; preds = %._crit_edge48
  call void @_ZdaPv(ptr noundef nonnull %21) #18
  br label %_ZN2cv10AutoBufferIiLm264EED2Ev.exit

_ZN2cv10AutoBufferIiLm264EED2Ev.exit:             ; preds = %._crit_edge48, %47
  call void @llvm.lifetime.end.p0(i64 1072, ptr nonnull %7) #16
  ret void
}